target datalayout = "e-m:e-p270:32:32-p271:32:32-p272:64:64-i64:64-i128:128-f80:128-n8:16:32:64-S128"
target triple = "x86_64-pc-linux-gnu"

%struct.object_id = type { [32 x i8], i32 }
%struct.shallow_info = type { ptr, ptr, i64, ptr, i64, ptr, ptr, ptr, ptr, ptr, ptr, i64 }
%struct.command = type { ptr, ptr, ptr, ptr, i8, i32, %struct.object_id, %struct.object_id, [0 x i8] }
%struct.iterate_data = type { ptr, ptr }

@shallow_update = internal global i32 0, align 4
@is_null_oid.null_hash = internal constant [32 x i8] zeroinitializer, align 16

; Function Attrs: inlinehint nounwind uwtable
define internal i32 @is_null_oid(ptr noundef %0) #5 {
  %2 = alloca ptr, align 8
  store ptr %0, ptr %2, align 8, !tbaa !166
  %3 = load ptr, ptr %2, align 8, !tbaa !166
  %4 = getelementptr inbounds nuw %struct.object_id, ptr %3, i32 0, i32 0
  %5 = getelementptr inbounds [32 x i8], ptr %4, i64 0, i64 0
  %6 = call i32 @memcmp(ptr noundef %5, ptr noundef @is_null_oid.null_hash, i64 noundef 32) #17
  %7 = icmp ne i32 %6, 0
  %8 = xor i1 %7, true
  %9 = zext i1 %8 to i32
  ret i32 %9
}

; Function Attrs: nounwind uwtable
define internal ptr @iterate_receive_command_list(ptr noundef %0) #0 {
  %2 = alloca ptr, align 8
  %3 = alloca ptr, align 8
  %4 = alloca ptr, align 8
  %5 = alloca ptr, align 8
  %6 = alloca ptr, align 8
  %7 = alloca i32, align 4
  store ptr %0, ptr %3, align 8, !tbaa !45
  call void @llvm.lifetime.start.p0(i64 8, ptr %4) #15
  %8 = load ptr, ptr %3, align 8, !tbaa !45
  store ptr %8, ptr %4, align 8, !tbaa !195
  call void @llvm.lifetime.start.p0(i64 8, ptr %5) #15
  %9 = load ptr, ptr %4, align 8, !tbaa !195
  %10 = getelementptr inbounds nuw %struct.iterate_data, ptr %9, i32 0, i32 0
  store ptr %10, ptr %5, align 8, !tbaa !82
  call void @llvm.lifetime.start.p0(i64 8, ptr %6) #15
  %11 = load ptr, ptr %5, align 8, !tbaa !82
  %12 = load ptr, ptr %11, align 8, !tbaa !29
  store ptr %12, ptr %6, align 8, !tbaa !29
  br label %13

13:                                               ; preds = %53, %1
  %14 = load ptr, ptr %6, align 8, !tbaa !29
  %15 = icmp ne ptr %14, null
  br i1 %15, label %16, label %57

16:                                               ; preds = %13
  %17 = load i32, ptr @shallow_update, align 4, !tbaa !4
  %18 = icmp ne i32 %17, 0
  br i1 %18, label %19, label %33

19:                                               ; preds = %16
  %20 = load ptr, ptr %4, align 8, !tbaa !195
  %21 = getelementptr inbounds nuw %struct.iterate_data, ptr %20, i32 0, i32 1
  %22 = load ptr, ptr %21, align 8, !tbaa !114
  %23 = getelementptr inbounds nuw %struct.shallow_info, ptr %22, i32 0, i32 9
  %24 = load ptr, ptr %23, align 8, !tbaa !189
  %25 = load ptr, ptr %6, align 8, !tbaa !29
  %26 = getelementptr inbounds nuw %struct.command, ptr %25, i32 0, i32 5
  %27 = load i32, ptr %26, align 4, !tbaa !4
  %28 = sext i32 %27 to i64
  %29 = getelementptr inbounds i32, ptr %24, i64 %28
  %30 = load i32, ptr %29, align 4, !tbaa !4
  %31 = icmp ne i32 %30, 0
  br i1 %31, label %32, label %33

32:                                               ; preds = %19
  br label %53

33:                                               ; preds = %19, %16
  %34 = load ptr, ptr %6, align 8, !tbaa !29
  %35 = getelementptr inbounds nuw %struct.command, ptr %34, i32 0, i32 7
  %36 = call i32 @is_null_oid(ptr noundef %35)
  %37 = icmp ne i32 %36, 0
  br i1 %37, label %52, label %38

38:                                               ; preds = %33
  %39 = load ptr, ptr %6, align 8, !tbaa !29
  %40 = getelementptr inbounds nuw %struct.command, ptr %39, i32 0, i32 4
  %41 = load i8, ptr %40, align 8
  %42 = and i8 %41, 1
  %43 = zext i8 %42 to i32
  %44 = icmp ne i32 %43, 0
  br i1 %44, label %52, label %45

45:                                               ; preds = %38
  %46 = load ptr, ptr %6, align 8, !tbaa !29
  %47 = getelementptr inbounds nuw %struct.command, ptr %46, i32 0, i32 0
  %48 = load ptr, ptr %47, align 8, !tbaa !29
  %49 = load ptr, ptr %5, align 8, !tbaa !82
  store ptr %48, ptr %49, align 8, !tbaa !29
  %50 = load ptr, ptr %6, align 8, !tbaa !29
  %51 = getelementptr inbounds nuw %struct.command, ptr %50, i32 0, i32 7
  store ptr %51, ptr %2, align 8
  store i32 1, ptr %7, align 4
  br label %58

52:                                               ; preds = %38, %33
  br label %53

53:                                               ; preds = %52, %32
  %54 = load ptr, ptr %6, align 8, !tbaa !29
  %55 = getelementptr inbounds nuw %struct.command, ptr %54, i32 0, i32 0
  %56 = load ptr, ptr %55, align 8, !tbaa !29
  store ptr %56, ptr %6, align 8, !tbaa !29
  br label %13, !llvm.loop !197

57:                                               ; preds = %13
  store ptr null, ptr %2, align 8
  store i32 1, ptr %7, align 4
  br label %58

58:                                               ; preds = %57, %45
  call void @llvm.lifetime.end.p0(i64 8, ptr %6) #15
  call void @llvm.lifetime.end.p0(i64 8, ptr %5) #15
  call void @llvm.lifetime.end.p0(i64 8, ptr %4) #15
  %59 = load ptr, ptr %2, align 8
  ret ptr %59
}