; Function Attrs: nofree nounwind memory(read, argmem: readwrite, inaccessiblemem: none) uwtable
define internal noundef ptr @iterate_receive_command_list(ptr noundef captures(none) %0) #12 {
  %.019 = load ptr, ptr %0, align 8, !tbaa !26
  %.not20 = icmp eq ptr %.019, null
  br i1 %.not20, label %.loopexit, label %.lr.ph

.lr.ph:                                           ; preds = %1
  %2 = load i32, ptr @shallow_update, align 4, !tbaa !4
  %.not14 = icmp eq i32 %2, 0
  br i1 %.not14, label %.lr.ph.split.us, label %.lr.ph.split

.lr.ph.split.us:                                  ; preds = %.lr.ph, %8
  %.021.us = phi ptr [ %.0.us, %8 ], [ %.019, %.lr.ph ]
  %3 = getelementptr inbounds nuw i8, ptr %.021.us, i64 76
  %bcmp.i.us = tail call i32 @bcmp(ptr noundef nonnull readonly dereferenceable(32) %3, ptr noundef nonnull dereferenceable(32) @is_null_oid.null_hash, i64 32)
  %.not.i.not.us = icmp eq i32 %bcmp.i.us, 0
  br i1 %.not.i.not.us, label %8, label %4

4:                                                ; preds = %.lr.ph.split.us
  %5 = getelementptr inbounds nuw i8, ptr %.021.us, i64 32
  %6 = load i8, ptr %5, align 8
  %7 = and i8 %6, 1
  %.not17.us = icmp eq i8 %7, 0
  br i1 %.not17.us, label %.split.us, label %8

8:                                                ; preds = %4, %.lr.ph.split.us
  %.0.us = load ptr, ptr %.021.us, align 8, !tbaa !26
  %.not.us = icmp eq ptr %.0.us, null
  br i1 %.not.us, label %.loopexit, label %.lr.ph.split.us, !llvm.loop !189

.lr.ph.split:                                     ; preds = %.lr.ph
  %9 = getelementptr inbounds nuw i8, ptr %0, i64 8
  %10 = load ptr, ptr %9, align 8, !tbaa !100
  %11 = getelementptr inbounds nuw i8, ptr %10, i64 72
  %12 = load ptr, ptr %11, align 8, !tbaa !88
  br label %13

13:                                               ; preds = %.lr.ph.split, %26
  %.021 = phi ptr [ %.019, %.lr.ph.split ], [ %.0, %26 ]
  %14 = getelementptr inbounds nuw i8, ptr %.021, i64 36
  %15 = load i32, ptr %14, align 4, !tbaa !4
  %16 = sext i32 %15 to i64
  %17 = getelementptr inbounds i32, ptr %12, i64 %16
  %18 = load i32, ptr %17, align 4, !tbaa !4
  %.not15 = icmp eq i32 %18, 0
  br i1 %.not15, label %19, label %26

19:                                               ; preds = %13
  %20 = getelementptr inbounds nuw i8, ptr %.021, i64 76
  %bcmp.i = tail call i32 @bcmp(ptr noundef nonnull readonly dereferenceable(32) %20, ptr noundef nonnull dereferenceable(32) @is_null_oid.null_hash, i64 32)
  %.not.i.not = icmp eq i32 %bcmp.i, 0
  br i1 %.not.i.not, label %26, label %21

21:                                               ; preds = %19
  %22 = getelementptr inbounds nuw i8, ptr %.021, i64 32
  %23 = load i8, ptr %22, align 8
  %24 = and i8 %23, 1
  %.not17 = icmp eq i8 %24, 0
  br i1 %.not17, label %.split.us, label %26

.split.us:                                        ; preds = %21, %4
  %.us-phi = phi ptr [ %3, %4 ], [ %20, %21 ]
  %.us-phi22 = phi ptr [ %.021.us, %4 ], [ %.021, %21 ]
  %25 = load ptr, ptr %.us-phi22, align 8, !tbaa !26
  store ptr %25, ptr %0, align 8, !tbaa !26
  br label %.loopexit

26:                                               ; preds = %19, %21, %13
  %.0 = load ptr, ptr %.021, align 8, !tbaa !26
  %.not = icmp eq ptr %.0, null
  br i1 %.not, label %.loopexit, label %13, !llvm.loop !189

.loopexit:                                        ; preds = %26, %8, %1, %.split.us
  %.013 = phi ptr [ %.us-phi, %.split.us ], [ null, %1 ], [ null, %8 ], [ null, %26 ]
  ret ptr %.013
}